target datalayout = "e-m:e-p270:32:32-p271:32:32-p272:64:64-i64:64-i128:128-f80:128-n8:16:32:64-S128"
target triple = "x86_64-pc-linux-gnu"

%struct.DdManager = type { %struct.DdNode, ptr, ptr, ptr, ptr, ptr, ptr, ptr, i32, i32, double, double, double, i32, i32, i32, i32, i32, i32, ptr, ptr, %struct.DdSubtable, i32, i32, i32, i32, i32, i32, i32, double, i32, i32, i32, ptr, i64, double, i32, ptr, ptr, ptr, ptr, ptr, ptr, ptr, i32, ptr, ptr, ptr, ptr, ptr, ptr, i32, i32, i32, double, i32, i32, i32, i32, double, double, i32, i32, i32, i32, i32, i32, i32, i32, i32, ptr, ptr, i32, i32, i32, i32, i32, i32, ptr, ptr, ptr, ptr, ptr, ptr, ptr, ptr, i32, i64, i64, i64, i32, i64, i64, double, double, double, double, double, double, i32, ptr, ptr, i64 }
%struct.DdNode = type { i32, i32, ptr, %union.anon, i64 }
%union.anon = type { %struct.DdChildren }
%struct.DdChildren = type { ptr, ptr }
%struct.DdSubtable = type { ptr, i32, i32, i32, i32, i32, i32, i32, i32, i32, i32, i32 }

; Function Attrs: nounwind uwtable
define ptr @Extra_zddTuplesFromBdd(ptr noundef %0, i32 noundef %1, ptr noundef %2) #0 {
  %4 = alloca ptr, align 8
  %5 = alloca ptr, align 8
  %6 = alloca i32, align 4
  %7 = alloca ptr, align 8
  %8 = alloca ptr, align 8
  %9 = alloca i32, align 4
  %10 = alloca ptr, align 8
  %11 = alloca ptr, align 8
  %12 = alloca i32, align 4
  %13 = alloca i32, align 4
  %14 = alloca i32, align 4
  store ptr %0, ptr %5, align 8, !tbaa !3
  store i32 %1, ptr %6, align 4, !tbaa !31
  store ptr %2, ptr %7, align 8, !tbaa !8
  call void @llvm.lifetime.start.p0(i64 8, ptr %8) #6
  call void @llvm.lifetime.start.p0(i64 4, ptr %9) #6
  %15 = load ptr, ptr %5, align 8, !tbaa !3
  %16 = getelementptr inbounds nuw %struct.DdManager, ptr %15, i32 0, i32 63
  %17 = load i32, ptr %16, align 8, !tbaa !68
  store i32 %17, ptr %9, align 4, !tbaa !31
  %18 = load ptr, ptr %5, align 8, !tbaa !3
  %19 = getelementptr inbounds nuw %struct.DdManager, ptr %18, i32 0, i32 63
  store i32 0, ptr %19, align 8, !tbaa !68
  br label %20

20:                                               ; preds = %79, %3
  call void @llvm.lifetime.start.p0(i64 8, ptr %10) #6
  %21 = load ptr, ptr %7, align 8, !tbaa !8
  store ptr %21, ptr %10, align 8, !tbaa !8
  call void @llvm.lifetime.start.p0(i64 8, ptr %11) #6
  %22 = load ptr, ptr %7, align 8, !tbaa !8
  store ptr %22, ptr %11, align 8, !tbaa !8
  call void @llvm.lifetime.start.p0(i64 4, ptr %12) #6
  store i32 0, ptr %12, align 4, !tbaa !31
  call void @llvm.lifetime.start.p0(i64 4, ptr %13) #6
  br label %23

23:                                               ; preds = %44, %20
  %24 = load ptr, ptr %10, align 8, !tbaa !8
  %25 = load ptr, ptr %5, align 8, !tbaa !3
  %26 = getelementptr inbounds nuw %struct.DdManager, ptr %25, i32 0, i32 1
  %27 = load ptr, ptr %26, align 8, !tbaa !38
  %28 = icmp ne ptr %24, %27
  br i1 %28, label %29, label %49

29:                                               ; preds = %23
  %30 = load i32, ptr %12, align 4, !tbaa !31
  %31 = add nsw i32 %30, 1
  store i32 %31, ptr %12, align 4, !tbaa !31
  %32 = load ptr, ptr %10, align 8, !tbaa !8
  %33 = getelementptr inbounds nuw %struct.DdNode, ptr %32, i32 0, i32 3
  %34 = getelementptr inbounds nuw %struct.DdChildren, ptr %33, i32 0, i32 1
  %35 = load ptr, ptr %34, align 8, !tbaa !41
  %36 = load ptr, ptr %5, align 8, !tbaa !3
  %37 = getelementptr inbounds nuw %struct.DdManager, ptr %36, i32 0, i32 1
  %38 = load ptr, ptr %37, align 8, !tbaa !38
  %39 = ptrtoint ptr %38 to i64
  %40 = xor i64 %39, 1
  %41 = inttoptr i64 %40 to ptr
  %42 = icmp ne ptr %35, %41
  br i1 %42, label %43, label %44

43:                                               ; preds = %29
  store ptr null, ptr %4, align 8
  store i32 1, ptr %14, align 4
  br label %76

44:                                               ; preds = %29
  %45 = load ptr, ptr %10, align 8, !tbaa !8
  %46 = getelementptr inbounds nuw %struct.DdNode, ptr %45, i32 0, i32 3
  %47 = getelementptr inbounds nuw %struct.DdChildren, ptr %46, i32 0, i32 0
  %48 = load ptr, ptr %47, align 8, !tbaa !41
  store ptr %48, ptr %10, align 8, !tbaa !8
  br label %23, !llvm.loop !69

49:                                               ; preds = %23
  %50 = load i32, ptr %6, align 4, !tbaa !31
  %51 = load i32, ptr %12, align 4, !tbaa !31
  %52 = icmp sgt i32 %50, %51
  br i1 %52, label %53, label %54

53:                                               ; preds = %49
  store ptr null, ptr %4, align 8
  store i32 1, ptr %14, align 4
  br label %76

54:                                               ; preds = %49
  store i32 0, ptr %13, align 4, !tbaa !31
  br label %55

55:                                               ; preds = %66, %54
  %56 = load i32, ptr %13, align 4, !tbaa !31
  %57 = load i32, ptr %12, align 4, !tbaa !31
  %58 = load i32, ptr %6, align 4, !tbaa !31
  %59 = sub nsw i32 %57, %58
  %60 = icmp slt i32 %56, %59
  br i1 %60, label %61, label %69

61:                                               ; preds = %55
  %62 = load ptr, ptr %11, align 8, !tbaa !8
  %63 = getelementptr inbounds nuw %struct.DdNode, ptr %62, i32 0, i32 3
  %64 = getelementptr inbounds nuw %struct.DdChildren, ptr %63, i32 0, i32 0
  %65 = load ptr, ptr %64, align 8, !tbaa !41
  store ptr %65, ptr %11, align 8, !tbaa !8
  br label %66

66:                                               ; preds = %61
  %67 = load i32, ptr %13, align 4, !tbaa !31
  %68 = add nsw i32 %67, 1
  store i32 %68, ptr %13, align 4, !tbaa !31
  br label %55, !llvm.loop !70

69:                                               ; preds = %55
  %70 = load ptr, ptr %5, align 8, !tbaa !3
  %71 = getelementptr inbounds nuw %struct.DdManager, ptr %70, i32 0, i32 55
  store i32 0, ptr %71, align 8, !tbaa !12
  %72 = load ptr, ptr %5, align 8, !tbaa !3
  %73 = load ptr, ptr %11, align 8, !tbaa !8
  %74 = load ptr, ptr %7, align 8, !tbaa !8
  %75 = call ptr @extraZddTuplesFromBdd(ptr noundef %72, ptr noundef %73, ptr noundef %74)
  store ptr %75, ptr %8, align 8, !tbaa !8
  store i32 0, ptr %14, align 4
  br label %76

76:                                               ; preds = %69, %53, %43
  call void @llvm.lifetime.end.p0(i64 4, ptr %13) #6
  call void @llvm.lifetime.end.p0(i64 4, ptr %12) #6
  call void @llvm.lifetime.end.p0(i64 8, ptr %11) #6
  call void @llvm.lifetime.end.p0(i64 8, ptr %10) #6
  %77 = load i32, ptr %14, align 4
  switch i32 %77, label %89 [
    i32 0, label %78
  ]

78:                                               ; preds = %76
  br label %79

79:                                               ; preds = %78
  %80 = load ptr, ptr %5, align 8, !tbaa !3
  %81 = getelementptr inbounds nuw %struct.DdManager, ptr %80, i32 0, i32 55
  %82 = load i32, ptr %81, align 8, !tbaa !12
  %83 = icmp eq i32 %82, 1
  br i1 %83, label %20, label %84, !llvm.loop !71

84:                                               ; preds = %79
  %85 = load i32, ptr %9, align 4, !tbaa !31
  %86 = load ptr, ptr %5, align 8, !tbaa !3
  %87 = getelementptr inbounds nuw %struct.DdManager, ptr %86, i32 0, i32 63
  store i32 %85, ptr %87, align 8, !tbaa !68
  %88 = load ptr, ptr %8, align 8, !tbaa !8
  store ptr %88, ptr %4, align 8
  store i32 1, ptr %14, align 4
  br label %89

89:                                               ; preds = %84, %76
  call void @llvm.lifetime.end.p0(i64 4, ptr %9) #6
  call void @llvm.lifetime.end.p0(i64 8, ptr %8) #6
  %90 = load ptr, ptr %4, align 8
  ret ptr %90
}