; Function Attrs: nounwind uwtable
define ptr @Extra_zddTuplesFromBdd(ptr noundef %0, i32 noundef %1, ptr noundef %2) local_unnamed_addr #0 {
  %4 = getelementptr inbounds nuw i8, ptr %0, i64 488
  %5 = load i32, ptr %4, align 8, !tbaa !62
  store i32 0, ptr %4, align 8, !tbaa !62
  %6 = getelementptr inbounds nuw i8, ptr %0, i64 40
  %7 = getelementptr inbounds nuw i8, ptr %0, i64 448
  br label %8

8:                                                ; preds = %._crit_edge46, %3
  %9 = load ptr, ptr %6, align 8, !tbaa !35
  %.not40 = icmp eq ptr %2, %9
  br i1 %.not40, label %._crit_edge, label %.lr.ph

.lr.ph:                                           ; preds = %8
  %10 = ptrtoint ptr %9 to i64
  %11 = xor i64 %10, 1
  %12 = inttoptr i64 %11 to ptr
  br label %13

13:                                               ; preds = %.lr.ph, %16
  %.02742 = phi i32 [ 0, %.lr.ph ], [ %18, %16 ]
  %.02941 = phi ptr [ %2, %.lr.ph ], [ %19, %16 ]
  %14 = getelementptr inbounds nuw i8, ptr %.02941, i64 24
  %15 = load ptr, ptr %14, align 8, !tbaa !38
  %.not35 = icmp eq ptr %15, %12
  br i1 %.not35, label %16, label %.thread

16:                                               ; preds = %13
  %17 = getelementptr inbounds nuw i8, ptr %.02941, i64 16
  %18 = add nuw nsw i32 %.02742, 1
  %19 = load ptr, ptr %17, align 8, !tbaa !38
  %.not = icmp eq ptr %19, %9
  br i1 %.not, label %._crit_edge, label %13, !llvm.loop !63

._crit_edge:                                      ; preds = %16, %8
  %.027.lcssa = phi i32 [ 0, %8 ], [ %18, %16 ]
  %20 = icmp sgt i32 %1, %.027.lcssa
  br i1 %20, label %.thread, label %.preheader

.preheader:                                       ; preds = %._crit_edge
  %21 = sub nsw i32 %.027.lcssa, %1
  %22 = icmp sgt i32 %21, 0
  br i1 %22, label %.lr.ph45, label %._crit_edge46

.lr.ph45:                                         ; preds = %.preheader, %.lr.ph45
  %.02644 = phi i32 [ %25, %.lr.ph45 ], [ 0, %.preheader ]
  %.02843 = phi ptr [ %24, %.lr.ph45 ], [ %2, %.preheader ]
  %23 = getelementptr inbounds nuw i8, ptr %.02843, i64 16
  %24 = load ptr, ptr %23, align 8, !tbaa !38
  %25 = add nuw nsw i32 %.02644, 1
  %exitcond.not = icmp eq i32 %25, %21
  br i1 %exitcond.not, label %._crit_edge46, label %.lr.ph45, !llvm.loop !64

._crit_edge46:                                    ; preds = %.lr.ph45, %.preheader
  %.028.lcssa = phi ptr [ %2, %.preheader ], [ %24, %.lr.ph45 ]
  store i32 0, ptr %7, align 8, !tbaa !3
  %26 = tail call ptr @extraZddTuplesFromBdd(ptr noundef %0, ptr noundef %.028.lcssa, ptr noundef %2)
  %27 = load i32, ptr %7, align 8, !tbaa !3
  %28 = icmp eq i32 %27, 1
  br i1 %28, label %8, label %29, !llvm.loop !65

29:                                               ; preds = %._crit_edge46
  store i32 %5, ptr %4, align 8, !tbaa !62
  br label %.thread

.thread:                                          ; preds = %._crit_edge, %13, %29
  %.2 = phi ptr [ %26, %29 ], [ null, %13 ], [ null, %._crit_edge ]
  ret ptr %.2
}